
rv32ui-p-lb：     文件格式 elf32-littleriscv


Disassembly of section .text.init:

80000000 <_start>:
80000000:	0480006f          	j	80000048 <reset_vector>

80000004 <trap_vector>:
80000004:	34202f73          	csrr	t5,mcause
80000008:	00800f93          	li	t6,8
8000000c:	03ff0863          	beq	t5,t6,8000003c <write_tohost>
80000010:	00900f93          	li	t6,9
80000014:	03ff0463          	beq	t5,t6,8000003c <write_tohost>
80000018:	00b00f93          	li	t6,11
8000001c:	03ff0063          	beq	t5,t6,8000003c <write_tohost>
80000020:	00000f13          	li	t5,0
80000024:	000f0463          	beqz	t5,8000002c <trap_vector+0x28>
80000028:	000f0067          	jr	t5
8000002c:	34202f73          	csrr	t5,mcause
80000030:	000f5463          	bgez	t5,80000038 <handle_exception>
80000034:	0040006f          	j	80000038 <handle_exception>

80000038 <handle_exception>:
80000038:	539e6e13          	or	t3,t3,1337

8000003c <write_tohost>:
8000003c:	00001f17          	auipc	t5,0x1
80000040:	fdcf2223          	sw	t3,-60(t5) # 80001000 <tohost>
80000044:	ff9ff06f          	j	8000003c <write_tohost>

80000048 <reset_vector>:
80000048:	f1402573          	csrr	a0,mhartid
8000004c:	00051063          	bnez	a0,8000004c <reset_vector+0x4>
80000050:	00000e13          	li	t3,0
80000054:	00000297          	auipc	t0,0x0
80000058:	fb028293          	add	t0,t0,-80 # 80000004 <trap_vector>
8000005c:	30529073          	csrw	mtvec,t0
80000060:	30102573          	csrr	a0,misa
80000064:	00055863          	bgez	a0,80000074 <reset_vector+0x2c>
80000068:	0ff0000f          	fence
8000006c:	00100e13          	li	t3,1
80000070:	00000073          	ecall
80000074:	30205073          	csrw	medeleg,0
80000078:	30305073          	csrw	mideleg,0
8000007c:	30405073          	csrw	mie,0
80000080:	00000293          	li	t0,0
80000084:	00028c63          	beqz	t0,8000009c <reset_vector+0x54>
80000088:	10529073          	csrw	stvec,t0
8000008c:	1ab00293          	li	t0,427
80000090:	30229073          	csrw	medeleg,t0
80000094:	30202373          	csrr	t1,medeleg
80000098:	fa6290e3          	bne	t0,t1,80000038 <handle_exception>
8000009c:	30005073          	csrw	mstatus,0
800000a0:	00000297          	auipc	t0,0x0
800000a4:	01428293          	add	t0,t0,20 # 800000b4 <test_2>
800000a8:	34129073          	csrw	mepc,t0
800000ac:	f1402573          	csrr	a0,mhartid
800000b0:	30200073          	mret

800000b4 <test_2>:
800000b4:	00200e13          	li	t3,2
800000b8:	fff00793          	li	a5,-1
800000bc:	00002097          	auipc	ra,0x2
800000c0:	f4408093          	add	ra,ra,-188 # 80002000 <begin_signature>
800000c4:	00008703          	lb	a4,0(ra)
800000c8:	fff00393          	li	t2,-1
800000cc:	24771a63          	bne	a4,t2,80000320 <fail>

800000d0 <test_3>:
800000d0:	00300e13          	li	t3,3
800000d4:	00000793          	li	a5,0
800000d8:	00002097          	auipc	ra,0x2
800000dc:	f2808093          	add	ra,ra,-216 # 80002000 <begin_signature>
800000e0:	00108703          	lb	a4,1(ra)
800000e4:	00000393          	li	t2,0
800000e8:	22771c63          	bne	a4,t2,80000320 <fail>

800000ec <test_4>:
800000ec:	00400e13          	li	t3,4
800000f0:	ff000793          	li	a5,-16
800000f4:	00002097          	auipc	ra,0x2
800000f8:	f0c08093          	add	ra,ra,-244 # 80002000 <begin_signature>
800000fc:	00208703          	lb	a4,2(ra)
80000100:	ff000393          	li	t2,-16
80000104:	20771e63          	bne	a4,t2,80000320 <fail>

80000108 <test_5>:
80000108:	00500e13          	li	t3,5
8000010c:	00f00793          	li	a5,15
80000110:	00002097          	auipc	ra,0x2
80000114:	ef008093          	add	ra,ra,-272 # 80002000 <begin_signature>
80000118:	00308703          	lb	a4,3(ra)
8000011c:	00f00393          	li	t2,15
80000120:	20771063          	bne	a4,t2,80000320 <fail>

80000124 <test_6>:
80000124:	00600e13          	li	t3,6
80000128:	fff00793          	li	a5,-1
8000012c:	00002097          	auipc	ra,0x2
80000130:	ed708093          	add	ra,ra,-297 # 80002003 <tdat4>
80000134:	ffd08703          	lb	a4,-3(ra)
80000138:	fff00393          	li	t2,-1
8000013c:	1e771263          	bne	a4,t2,80000320 <fail>

80000140 <test_7>:
80000140:	00700e13          	li	t3,7
80000144:	00000793          	li	a5,0
80000148:	00002097          	auipc	ra,0x2
8000014c:	ebb08093          	add	ra,ra,-325 # 80002003 <tdat4>
80000150:	ffe08703          	lb	a4,-2(ra)
80000154:	00000393          	li	t2,0
80000158:	1c771463          	bne	a4,t2,80000320 <fail>

8000015c <test_8>:
8000015c:	00800e13          	li	t3,8
80000160:	ff000793          	li	a5,-16
80000164:	00002097          	auipc	ra,0x2
80000168:	e9f08093          	add	ra,ra,-353 # 80002003 <tdat4>
8000016c:	fff08703          	lb	a4,-1(ra)
80000170:	ff000393          	li	t2,-16
80000174:	1a771663          	bne	a4,t2,80000320 <fail>

80000178 <test_9>:
80000178:	00900e13          	li	t3,9
8000017c:	00f00793          	li	a5,15
80000180:	00002097          	auipc	ra,0x2
80000184:	e8308093          	add	ra,ra,-381 # 80002003 <tdat4>
80000188:	00008703          	lb	a4,0(ra)
8000018c:	00f00393          	li	t2,15
80000190:	18771863          	bne	a4,t2,80000320 <fail>

80000194 <test_10>:
80000194:	00a00e13          	li	t3,10
80000198:	00002097          	auipc	ra,0x2
8000019c:	e6808093          	add	ra,ra,-408 # 80002000 <begin_signature>
800001a0:	fe008093          	add	ra,ra,-32
800001a4:	02008283          	lb	t0,32(ra)
800001a8:	fff00393          	li	t2,-1
800001ac:	16729a63          	bne	t0,t2,80000320 <fail>

800001b0 <test_11>:
800001b0:	00b00e13          	li	t3,11
800001b4:	00002097          	auipc	ra,0x2
800001b8:	e4c08093          	add	ra,ra,-436 # 80002000 <begin_signature>
800001bc:	ffa08093          	add	ra,ra,-6
800001c0:	00708283          	lb	t0,7(ra)
800001c4:	00000393          	li	t2,0
800001c8:	14729c63          	bne	t0,t2,80000320 <fail>

800001cc <test_12>:
800001cc:	00c00e13          	li	t3,12
800001d0:	00000213          	li	tp,0
800001d4:	00002097          	auipc	ra,0x2
800001d8:	e2d08093          	add	ra,ra,-467 # 80002001 <tdat2>
800001dc:	00108703          	lb	a4,1(ra)
800001e0:	00070313          	mv	t1,a4
800001e4:	ff000393          	li	t2,-16
800001e8:	12731c63          	bne	t1,t2,80000320 <fail>
800001ec:	00120213          	add	tp,tp,1 # 1 <_start-0x7fffffff>
800001f0:	00200293          	li	t0,2
800001f4:	fe5210e3          	bne	tp,t0,800001d4 <test_12+0x8>

800001f8 <test_13>:
800001f8:	00d00e13          	li	t3,13
800001fc:	00000213          	li	tp,0
80000200:	00002097          	auipc	ra,0x2
80000204:	e0208093          	add	ra,ra,-510 # 80002002 <tdat3>
80000208:	00108703          	lb	a4,1(ra)
8000020c:	00000013          	nop
80000210:	00070313          	mv	t1,a4
80000214:	00f00393          	li	t2,15
80000218:	10731463          	bne	t1,t2,80000320 <fail>
8000021c:	00120213          	add	tp,tp,1 # 1 <_start-0x7fffffff>
80000220:	00200293          	li	t0,2
80000224:	fc521ee3          	bne	tp,t0,80000200 <test_13+0x8>

80000228 <test_14>:
80000228:	00e00e13          	li	t3,14
8000022c:	00000213          	li	tp,0
80000230:	00002097          	auipc	ra,0x2
80000234:	dd008093          	add	ra,ra,-560 # 80002000 <begin_signature>
80000238:	00108703          	lb	a4,1(ra)
8000023c:	00000013          	nop
80000240:	00000013          	nop
80000244:	00070313          	mv	t1,a4
80000248:	00000393          	li	t2,0
8000024c:	0c731a63          	bne	t1,t2,80000320 <fail>
80000250:	00120213          	add	tp,tp,1 # 1 <_start-0x7fffffff>
80000254:	00200293          	li	t0,2
80000258:	fc521ce3          	bne	tp,t0,80000230 <test_14+0x8>

8000025c <test_15>:
8000025c:	00f00e13          	li	t3,15
80000260:	00000213          	li	tp,0
80000264:	00002097          	auipc	ra,0x2
80000268:	d9d08093          	add	ra,ra,-611 # 80002001 <tdat2>
8000026c:	00108703          	lb	a4,1(ra)
80000270:	ff000393          	li	t2,-16
80000274:	0a771663          	bne	a4,t2,80000320 <fail>
80000278:	00120213          	add	tp,tp,1 # 1 <_start-0x7fffffff>
8000027c:	00200293          	li	t0,2
80000280:	fe5212e3          	bne	tp,t0,80000264 <test_15+0x8>

80000284 <test_16>:
80000284:	01000e13          	li	t3,16
80000288:	00000213          	li	tp,0
8000028c:	00002097          	auipc	ra,0x2
80000290:	d7608093          	add	ra,ra,-650 # 80002002 <tdat3>
80000294:	00000013          	nop
80000298:	00108703          	lb	a4,1(ra)
8000029c:	00f00393          	li	t2,15
800002a0:	08771063          	bne	a4,t2,80000320 <fail>
800002a4:	00120213          	add	tp,tp,1 # 1 <_start-0x7fffffff>
800002a8:	00200293          	li	t0,2
800002ac:	fe5210e3          	bne	tp,t0,8000028c <test_16+0x8>

800002b0 <test_17>:
800002b0:	01100e13          	li	t3,17
800002b4:	00000213          	li	tp,0
800002b8:	00002097          	auipc	ra,0x2
800002bc:	d4808093          	add	ra,ra,-696 # 80002000 <begin_signature>
800002c0:	00000013          	nop
800002c4:	00000013          	nop
800002c8:	00108703          	lb	a4,1(ra)
800002cc:	00000393          	li	t2,0
800002d0:	04771863          	bne	a4,t2,80000320 <fail>
800002d4:	00120213          	add	tp,tp,1 # 1 <_start-0x7fffffff>
800002d8:	00200293          	li	t0,2
800002dc:	fc521ee3          	bne	tp,t0,800002b8 <test_17+0x8>

800002e0 <test_18>:
800002e0:	01200e13          	li	t3,18
800002e4:	00002297          	auipc	t0,0x2
800002e8:	d1c28293          	add	t0,t0,-740 # 80002000 <begin_signature>
800002ec:	00028103          	lb	sp,0(t0)
800002f0:	00200113          	li	sp,2
800002f4:	00200393          	li	t2,2
800002f8:	02711463          	bne	sp,t2,80000320 <fail>

800002fc <test_19>:
800002fc:	01300e13          	li	t3,19
80000300:	00002297          	auipc	t0,0x2
80000304:	d0028293          	add	t0,t0,-768 # 80002000 <begin_signature>
80000308:	00028103          	lb	sp,0(t0)
8000030c:	00000013          	nop
80000310:	00200113          	li	sp,2
80000314:	00200393          	li	t2,2
80000318:	00711463          	bne	sp,t2,80000320 <fail>
8000031c:	01c01c63          	bne	zero,t3,80000334 <pass>

80000320 <fail>:
80000320:	0ff0000f          	fence
80000324:	000e0063          	beqz	t3,80000324 <fail+0x4>
80000328:	001e1e13          	sll	t3,t3,0x1
8000032c:	001e6e13          	or	t3,t3,1
80000330:	00000073          	ecall

80000334 <pass>:
80000334:	0ff0000f          	fence
80000338:	00100e13          	li	t3,1
8000033c:	00000073          	ecall
80000340:	c0001073          	unimp
80000344:	0000                	.insn	2, 0x
80000346:	0000                	.insn	2, 0x
80000348:	0000                	.insn	2, 0x
8000034a:	0000                	.insn	2, 0x
8000034c:	0000                	.insn	2, 0x
8000034e:	0000                	.insn	2, 0x
80000350:	0000                	.insn	2, 0x
80000352:	0000                	.insn	2, 0x
80000354:	0000                	.insn	2, 0x
80000356:	0000                	.insn	2, 0x
80000358:	0000                	.insn	2, 0x
8000035a:	0000                	.insn	2, 0x
8000035c:	0000                	.insn	2, 0x
8000035e:	0000                	.insn	2, 0x
80000360:	0000                	.insn	2, 0x
80000362:	0000                	.insn	2, 0x
80000364:	0000                	.insn	2, 0x
80000366:	0000                	.insn	2, 0x
80000368:	0000                	.insn	2, 0x
8000036a:	0000                	.insn	2, 0x
8000036c:	0000                	.insn	2, 0x
8000036e:	0000                	.insn	2, 0x
80000370:	0000                	.insn	2, 0x
80000372:	0000                	.insn	2, 0x
80000374:	0000                	.insn	2, 0x
80000376:	0000                	.insn	2, 0x
80000378:	0000                	.insn	2, 0x
8000037a:	0000                	.insn	2, 0x

Disassembly of section .data:

80002000 <begin_signature>:
80002000:	    	.insn	10, 0x0ff000ff
80002008:	 

80002001 <tdat2>:
80002001:	                	.insn	2, 0xf000

80002002 <tdat3>:
80002002:	                	.insn	2, 0x0ff0

80002003 <tdat4>:
80002003:	0000000f          	fence	unknown,unknown
80002007:	0000                	.insn	2, 0x
80002009:	0000                	.insn	2, 0x
8000200b:	0000                	.insn	2, 0x
8000200d:	0000                	.insn	2, 0x
8000200f:	Address 0x8000200f is out of bounds.

